target datalayout = "e-m:e-p270:32:32-p271:32:32-p272:64:64-i64:64-i128:128-f80:128-n8:16:32:64-S128"
target triple = "x86_64-pc-linux-gnu"

; Function Attrs: nounwind uwtable
define dso_local signext i8 @TypeCategory(i32 noundef %0) #0 {
  %2 = alloca i32, align 4
  %3 = alloca i8, align 1
  %4 = alloca i8, align 1
  store i32 %0, ptr %2, align 4
  call void @llvm.lifetime.start.p0(i64 1, ptr %3) #6
  call void @llvm.lifetime.start.p0(i64 1, ptr %4) #6
  %5 = load i32, ptr %2, align 4
  call void @get_type_category_preferred(i32 noundef %5, ptr noundef %3, ptr noundef %4)
  %6 = load i8, ptr %3, align 1
  call void @llvm.lifetime.end.p0(i64 1, ptr %4) #6
  call void @llvm.lifetime.end.p0(i64 1, ptr %3) #6
  ret i8 %6
}