; Function Attrs: nounwind uwtable
define dso_local signext i8 @TypeCategory(i32 noundef %0) local_unnamed_addr #0 {
  %2 = alloca i8, align 1
  %3 = alloca i8, align 1
  call void @llvm.lifetime.start.p0(i64 1, ptr nonnull %2) #5
  call void @llvm.lifetime.start.p0(i64 1, ptr nonnull %3) #5
  call void @get_type_category_preferred(i32 noundef %0, ptr noundef nonnull %2, ptr noundef nonnull %3) #5
  %4 = load i8, ptr %2, align 1
  call void @llvm.lifetime.end.p0(i64 1, ptr nonnull %3) #5
  call void @llvm.lifetime.end.p0(i64 1, ptr nonnull %2) #5
  ret i8 %4
}